target datalayout = "e-m:e-p270:32:32-p271:32:32-p272:64:64-i64:64-i128:128-f80:128-n8:16:32:64-S128"
target triple = "x86_64-pc-linux-gnu"

%struct.URLContext = type { ptr, ptr, ptr, ptr, i32, i32, i32, i32, %struct.AVIOInterruptCB, i64, ptr, ptr, i32 }
%struct.AVIOInterruptCB = type { ptr, ptr }
%struct.RTMPContext = type { ptr, ptr, [2 x ptr], [2 x i32], i32, i32, i32, ptr, i32, ptr, ptr, i32, i32, ptr, i32, i32, i32, %struct.RTMPPacket, i32, i64, i64, i32, i32, i32, i32, i32, [11 x i8], i32, i32, ptr, ptr, ptr, i32, i32, ptr, ptr, [42 x i8], ptr, ptr, i32, i32, i32, i32, ptr, i32, i32, i32, i32, i32, double, i32, ptr, [50 x i8], [50 x i8], [500 x i8], i32, i32 }
%struct.RTMPPacket = type { i32, i32, i32, i32, i32, ptr, i32, i32, i32 }

@.str.200 = private unnamed_addr constant [23 x i8] c"Pause at timestamp %d\0A\00", align 1
@.str.201 = private unnamed_addr constant [46 x i8] c"Unable to send pause command at timestamp %d\0A\00", align 1
@.str.202 = private unnamed_addr constant [40 x i8] c"Sending pause command for timestamp %d\0A\00", align 1
@.str.203 = private unnamed_addr constant [6 x i8] c"pause\00", align 1

; Function Attrs: nounwind uwtable
define internal i32 @gen_pause(ptr noundef %0, ptr noundef %1, i32 noundef %2, i32 noundef %3) #0 {
  %5 = alloca i32, align 4
  %6 = alloca ptr, align 8
  %7 = alloca ptr, align 8
  %8 = alloca i32, align 4
  %9 = alloca i32, align 4
  %10 = alloca %struct.RTMPPacket, align 8
  %11 = alloca ptr, align 8
  %12 = alloca i32, align 4
  %13 = alloca i32, align 4
  store ptr %0, ptr %6, align 8, !tbaa !4
  store ptr %1, ptr %7, align 8, !tbaa !22
  store i32 %2, ptr %8, align 4, !tbaa !11
  store i32 %3, ptr %9, align 4, !tbaa !11
  call void @llvm.lifetime.start.p0(i64 48, ptr %10) #12
  call void @llvm.lifetime.start.p0(i64 8, ptr %11) #12
  call void @llvm.lifetime.start.p0(i64 4, ptr %12) #12
  %14 = load ptr, ptr %6, align 8, !tbaa !4
  %15 = load i32, ptr %9, align 4, !tbaa !11
  call void (ptr, i32, ptr, ...) @av_log(ptr noundef %14, i32 noundef 48, ptr noundef @.str.202, i32 noundef %15)
  %16 = call i32 @ff_rtmp_packet_create(ptr noundef %10, i32 noundef 3, i32 noundef 20, i32 noundef 0, i32 noundef 29)
  store i32 %16, ptr %12, align 4, !tbaa !11
  %17 = icmp slt i32 %16, 0
  br i1 %17, label %18, label %20

18:                                               ; preds = %4
  %19 = load i32, ptr %12, align 4, !tbaa !11
  store i32 %19, ptr %5, align 4
  store i32 1, ptr %13, align 4
  br label %32

20:                                               ; preds = %4
  %21 = load ptr, ptr %7, align 8, !tbaa !22
  %22 = getelementptr inbounds nuw %struct.RTMPContext, ptr %21, i32 0, i32 12
  %23 = load i32, ptr %22, align 4, !tbaa !72
  %24 = getelementptr inbounds nuw %struct.RTMPPacket, ptr %10, i32 0, i32 4
  store i32 %23, ptr %24, align 8, !tbaa !148
  %25 = getelementptr inbounds nuw %struct.RTMPPacket, ptr %10, i32 0, i32 5
  %26 = load ptr, ptr %25, align 8, !tbaa !90
  store ptr %26, ptr %11, align 8, !tbaa !9
  call void @ff_amf_write_string(ptr noundef %11, ptr noundef @.str.203)
  call void @ff_amf_write_number(ptr noundef %11, double noundef 0.000000e+00)
  call void @ff_amf_write_null(ptr noundef %11)
  %27 = load i32, ptr %8, align 4, !tbaa !11
  call void @ff_amf_write_bool(ptr noundef %11, i32 noundef %27)
  %28 = load i32, ptr %9, align 4, !tbaa !11
  %29 = uitofp i32 %28 to double
  call void @ff_amf_write_number(ptr noundef %11, double noundef %29)
  %30 = load ptr, ptr %7, align 8, !tbaa !22
  %31 = call i32 @rtmp_send_packet(ptr noundef %30, ptr noundef %10, i32 noundef 1)
  store i32 %31, ptr %5, align 4
  store i32 1, ptr %13, align 4
  br label %32

32:                                               ; preds = %20, %18
  call void @llvm.lifetime.end.p0(i64 4, ptr %12) #12
  call void @llvm.lifetime.end.p0(i64 8, ptr %11) #12
  call void @llvm.lifetime.end.p0(i64 48, ptr %10) #12
  %33 = load i32, ptr %5, align 4
  ret i32 %33
}

; Function Attrs: nounwind uwtable
define internal i32 @rtmp_pause(ptr noundef %0, i32 noundef %1) #0 {
  %3 = alloca i32, align 4
  %4 = alloca ptr, align 8
  %5 = alloca i32, align 4
  %6 = alloca ptr, align 8
  %7 = alloca ptr, align 8
  %8 = alloca i32, align 4
  %9 = alloca i32, align 4
  store ptr %0, ptr %4, align 8, !tbaa !83
  store i32 %1, ptr %5, align 4, !tbaa !11
  call void @llvm.lifetime.start.p0(i64 8, ptr %6) #12
  %10 = load ptr, ptr %4, align 8, !tbaa !83
  store ptr %10, ptr %6, align 8, !tbaa !4
  call void @llvm.lifetime.start.p0(i64 8, ptr %7) #12
  %11 = load ptr, ptr %6, align 8, !tbaa !4
  %12 = getelementptr inbounds nuw %struct.URLContext, ptr %11, i32 0, i32 2
  %13 = load ptr, ptr %12, align 8, !tbaa !16
  store ptr %13, ptr %7, align 8, !tbaa !22
  call void @llvm.lifetime.start.p0(i64 4, ptr %8) #12
  %14 = load ptr, ptr %6, align 8, !tbaa !4
  %15 = load ptr, ptr %7, align 8, !tbaa !22
  %16 = getelementptr inbounds nuw %struct.RTMPContext, ptr %15, i32 0, i32 21
  %17 = load i32, ptr %16, align 8, !tbaa !84
  call void (ptr, i32, ptr, ...) @av_log(ptr noundef %14, i32 noundef 48, ptr noundef @.str.200, i32 noundef %17)
  %18 = load ptr, ptr %6, align 8, !tbaa !4
  %19 = load ptr, ptr %7, align 8, !tbaa !22
  %20 = load i32, ptr %5, align 4, !tbaa !11
  %21 = load ptr, ptr %7, align 8, !tbaa !22
  %22 = getelementptr inbounds nuw %struct.RTMPContext, ptr %21, i32 0, i32 21
  %23 = load i32, ptr %22, align 8, !tbaa !84
  %24 = call i32 @gen_pause(ptr noundef %18, ptr noundef %19, i32 noundef %20, i32 noundef %23)
  store i32 %24, ptr %8, align 4, !tbaa !11
  %25 = icmp slt i32 %24, 0
  br i1 %25, label %26, label %32

26:                                               ; preds = %2
  %27 = load ptr, ptr %6, align 8, !tbaa !4
  %28 = load ptr, ptr %7, align 8, !tbaa !22
  %29 = getelementptr inbounds nuw %struct.RTMPContext, ptr %28, i32 0, i32 21
  %30 = load i32, ptr %29, align 8, !tbaa !84
  call void (ptr, i32, ptr, ...) @av_log(ptr noundef %27, i32 noundef 16, ptr noundef @.str.201, i32 noundef %30)
  %31 = load i32, ptr %8, align 4, !tbaa !11
  store i32 %31, ptr %3, align 4
  store i32 1, ptr %9, align 4
  br label %33

32:                                               ; preds = %2
  store i32 0, ptr %3, align 4
  store i32 1, ptr %9, align 4
  br label %33

33:                                               ; preds = %32, %26
  call void @llvm.lifetime.end.p0(i64 4, ptr %8) #12
  call void @llvm.lifetime.end.p0(i64 8, ptr %7) #12
  call void @llvm.lifetime.end.p0(i64 8, ptr %6) #12
  %34 = load i32, ptr %3, align 4
  ret i32 %34
}