; Function Attrs: nounwind uwtable
define internal range(i32 -2147483648, 1) i32 @rtmp_pause(ptr noundef %0, i32 noundef %1) #0 {
  %3 = alloca %struct.RTMPPacket, align 8
  %4 = alloca ptr, align 8
  %5 = getelementptr inbounds nuw i8, ptr %0, i64 16
  %6 = load ptr, ptr %5, align 8, !tbaa !4
  %7 = getelementptr inbounds nuw i8, ptr %6, i64 192
  %8 = load i32, ptr %7, align 8, !tbaa !106
  tail call void (ptr, i32, ptr, ...) @av_log(ptr noundef %0, i32 noundef 48, ptr noundef nonnull @.str.200, i32 noundef %8) #11
  %9 = load i32, ptr %7, align 8, !tbaa !106
  call void @llvm.lifetime.start.p0(i64 48, ptr nonnull %3) #11
  call void @llvm.lifetime.start.p0(i64 8, ptr nonnull %4) #11
  tail call void (ptr, i32, ptr, ...) @av_log(ptr noundef %0, i32 noundef 48, ptr noundef nonnull @.str.202, i32 noundef %9) #11
  %10 = call i32 @ff_rtmp_packet_create(ptr noundef nonnull %3, i32 noundef 3, i32 noundef 20, i32 noundef 0, i32 noundef 29) #11
  %11 = icmp slt i32 %10, 0
  br i1 %11, label %gen_pause.exit.thread, label %gen_pause.exit

gen_pause.exit.thread:                            ; preds = %2
  call void @llvm.lifetime.end.p0(i64 8, ptr nonnull %4) #11
  call void @llvm.lifetime.end.p0(i64 48, ptr nonnull %3) #11
  br label %20

gen_pause.exit:                                   ; preds = %2
  %12 = getelementptr inbounds nuw i8, ptr %6, i64 92
  %13 = load i32, ptr %12, align 4, !tbaa !103
  %14 = getelementptr inbounds nuw i8, ptr %3, i64 16
  store i32 %13, ptr %14, align 8, !tbaa !107
  %15 = getelementptr inbounds nuw i8, ptr %3, i64 24
  %16 = load ptr, ptr %15, align 8, !tbaa !63
  store ptr %16, ptr %4, align 8, !tbaa !31
  call void @ff_amf_write_string(ptr noundef nonnull %4, ptr noundef nonnull @.str.203) #11
  call void @ff_amf_write_number(ptr noundef nonnull %4, double noundef 0.000000e+00) #11
  call void @ff_amf_write_null(ptr noundef nonnull %4) #11
  call void @ff_amf_write_bool(ptr noundef nonnull %4, i32 noundef %1) #11
  %17 = uitofp i32 %9 to double
  call void @ff_amf_write_number(ptr noundef nonnull %4, double noundef %17) #11
  %18 = call fastcc i32 @rtmp_send_packet(ptr noundef nonnull %6, ptr noundef nonnull %3, i32 noundef 1)
  call void @llvm.lifetime.end.p0(i64 8, ptr nonnull %4) #11
  call void @llvm.lifetime.end.p0(i64 48, ptr nonnull %3) #11
  %19 = icmp slt i32 %18, 0
  br i1 %19, label %20, label %22

20:                                               ; preds = %gen_pause.exit.thread, %gen_pause.exit
  %.0.i13 = phi i32 [ %10, %gen_pause.exit.thread ], [ %18, %gen_pause.exit ]
  %21 = load i32, ptr %7, align 8, !tbaa !106
  call void (ptr, i32, ptr, ...) @av_log(ptr noundef nonnull %0, i32 noundef 16, ptr noundef nonnull @.str.201, i32 noundef %21) #11
  br label %22

22:                                               ; preds = %gen_pause.exit, %20
  %.0 = phi i32 [ %.0.i13, %20 ], [ 0, %gen_pause.exit ]
  ret i32 %.0
}